target datalayout = "e-m:e-p270:32:32-p271:32:32-p272:64:64-i64:64-i128:128-f80:128-n8:16:32:64-S128"
target triple = "x86_64-pc-linux-gnu"

%"class.boost::unit_test::test_results" = type <{ %"class.boost::unit_test::test_results::readonly_property59", %"class.boost::unit_test::test_results::readonly_property59", %"class.boost::unit_test::test_results::readonly_property59", %"class.boost::unit_test::test_results::readonly_property59", %"class.boost::unit_test::test_results::readonly_property59", %"class.boost::unit_test::test_results::readonly_property59", %"class.boost::unit_test::test_results::readonly_property59", %"class.boost::unit_test::test_results::readonly_property59", %"class.boost::unit_test::test_results::readonly_property59", %"class.boost::unit_test::test_results::readonly_property59", %"class.boost::unit_test::test_results::readonly_property59", %"class.boost::unit_test::test_results::readonly_property59", %"class.boost::unit_test::test_results::readonly_property59", %"class.boost::unit_test::test_results::readonly_property63", %"class.boost::unit_test::test_results::readonly_property63", %"class.boost::unit_test::test_results::readonly_property63", [5 x i8] }>
%"class.boost::unit_test::test_results::readonly_property59" = type { %"class.boost::unit_test::readonly_property" }
%"class.boost::unit_test::readonly_property" = type { %"class.boost::unit_test::class_property" }
%"class.boost::unit_test::class_property" = type { i64 }
%"class.boost::unit_test::test_results::readonly_property63" = type { %"class.boost::unit_test::readonly_property.0" }
%"class.boost::unit_test::readonly_property.0" = type { %"class.boost::unit_test::class_property.1" }
%"class.boost::unit_test::class_property.1" = type { i8 }

; Function Attrs: mustprogress nounwind uwtable
define linkonce_odr hidden noundef nonnull align 8 dereferenceable(8) ptr @_ZNK5boost9unit_test14class_propertyImEcvRKmEv(ptr noundef nonnull align 8 dereferenceable(8) %0) #4 comdat align 2 {
  %2 = alloca ptr, align 8
  store ptr %0, ptr %2, align 8, !tbaa !3
  %3 = load ptr, ptr %2, align 8
  %4 = getelementptr inbounds nuw %"class.boost::unit_test::class_property", ptr %3, i32 0, i32 0
  ret ptr %4
}

; Function Attrs: mustprogress uwtable
define void @_ZN5boost9unit_test12test_resultspLERKS1_(ptr noundef nonnull align 8 dereferenceable(107) %0, ptr noundef nonnull align 8 dereferenceable(107) %1) #5 align 2 {
  %3 = alloca ptr, align 8
  %4 = alloca ptr, align 8
  store ptr %0, ptr %3, align 8, !tbaa !3
  store ptr %1, ptr %4, align 8, !tbaa !3
  %5 = load ptr, ptr %3, align 8
  %6 = load ptr, ptr %4, align 8, !tbaa !3
  %7 = getelementptr inbounds nuw %"class.boost::unit_test::test_results", ptr %6, i32 0, i32 0
  %8 = call noundef nonnull align 8 dereferenceable(8) ptr @_ZNK5boost9unit_test14class_propertyImEcvRKmEv(ptr noundef nonnull align 8 dereferenceable(8) %7)
  %9 = load i64, ptr %8, align 8, !tbaa !14
  %10 = getelementptr inbounds nuw %"class.boost::unit_test::test_results", ptr %5, i32 0, i32 0
  %11 = getelementptr inbounds nuw %"class.boost::unit_test::class_property", ptr %10, i32 0, i32 0
  %12 = load i64, ptr %11, align 8, !tbaa !8
  %13 = add i64 %12, %9
  store i64 %13, ptr %11, align 8, !tbaa !8
  %14 = load ptr, ptr %4, align 8, !tbaa !3
  %15 = getelementptr inbounds nuw %"class.boost::unit_test::test_results", ptr %14, i32 0, i32 1
  %16 = call noundef nonnull align 8 dereferenceable(8) ptr @_ZNK5boost9unit_test14class_propertyImEcvRKmEv(ptr noundef nonnull align 8 dereferenceable(8) %15)
  %17 = load i64, ptr %16, align 8, !tbaa !14
  %18 = getelementptr inbounds nuw %"class.boost::unit_test::test_results", ptr %5, i32 0, i32 1
  %19 = getelementptr inbounds nuw %"class.boost::unit_test::class_property", ptr %18, i32 0, i32 0
  %20 = load i64, ptr %19, align 8, !tbaa !8
  %21 = add i64 %20, %17
  store i64 %21, ptr %19, align 8, !tbaa !8
  %22 = load ptr, ptr %4, align 8, !tbaa !3
  %23 = getelementptr inbounds nuw %"class.boost::unit_test::test_results", ptr %22, i32 0, i32 2
  %24 = call noundef nonnull align 8 dereferenceable(8) ptr @_ZNK5boost9unit_test14class_propertyImEcvRKmEv(ptr noundef nonnull align 8 dereferenceable(8) %23)
  %25 = load i64, ptr %24, align 8, !tbaa !14
  %26 = getelementptr inbounds nuw %"class.boost::unit_test::test_results", ptr %5, i32 0, i32 2
  %27 = getelementptr inbounds nuw %"class.boost::unit_test::class_property", ptr %26, i32 0, i32 0
  %28 = load i64, ptr %27, align 8, !tbaa !8
  %29 = add i64 %28, %25
  store i64 %29, ptr %27, align 8, !tbaa !8
  %30 = load ptr, ptr %4, align 8, !tbaa !3
  %31 = getelementptr inbounds nuw %"class.boost::unit_test::test_results", ptr %30, i32 0, i32 3
  %32 = call noundef nonnull align 8 dereferenceable(8) ptr @_ZNK5boost9unit_test14class_propertyImEcvRKmEv(ptr noundef nonnull align 8 dereferenceable(8) %31)
  %33 = load i64, ptr %32, align 8, !tbaa !14
  %34 = getelementptr inbounds nuw %"class.boost::unit_test::test_results", ptr %5, i32 0, i32 3
  %35 = getelementptr inbounds nuw %"class.boost::unit_test::class_property", ptr %34, i32 0, i32 0
  %36 = load i64, ptr %35, align 8, !tbaa !8
  %37 = add i64 %36, %33
  store i64 %37, ptr %35, align 8, !tbaa !8
  %38 = load ptr, ptr %4, align 8, !tbaa !3
  %39 = getelementptr inbounds nuw %"class.boost::unit_test::test_results", ptr %38, i32 0, i32 5
  %40 = call noundef nonnull align 8 dereferenceable(8) ptr @_ZNK5boost9unit_test14class_propertyImEcvRKmEv(ptr noundef nonnull align 8 dereferenceable(8) %39)
  %41 = load i64, ptr %40, align 8, !tbaa !14
  %42 = getelementptr inbounds nuw %"class.boost::unit_test::test_results", ptr %5, i32 0, i32 5
  %43 = getelementptr inbounds nuw %"class.boost::unit_test::class_property", ptr %42, i32 0, i32 0
  %44 = load i64, ptr %43, align 8, !tbaa !8
  %45 = add i64 %44, %41
  store i64 %45, ptr %43, align 8, !tbaa !8
  %46 = load ptr, ptr %4, align 8, !tbaa !3
  %47 = getelementptr inbounds nuw %"class.boost::unit_test::test_results", ptr %46, i32 0, i32 6
  %48 = call noundef nonnull align 8 dereferenceable(8) ptr @_ZNK5boost9unit_test14class_propertyImEcvRKmEv(ptr noundef nonnull align 8 dereferenceable(8) %47)
  %49 = load i64, ptr %48, align 8, !tbaa !14
  %50 = getelementptr inbounds nuw %"class.boost::unit_test::test_results", ptr %5, i32 0, i32 6
  %51 = getelementptr inbounds nuw %"class.boost::unit_test::class_property", ptr %50, i32 0, i32 0
  %52 = load i64, ptr %51, align 8, !tbaa !8
  %53 = add i64 %52, %49
  store i64 %53, ptr %51, align 8, !tbaa !8
  %54 = load ptr, ptr %4, align 8, !tbaa !3
  %55 = getelementptr inbounds nuw %"class.boost::unit_test::test_results", ptr %54, i32 0, i32 7
  %56 = call noundef nonnull align 8 dereferenceable(8) ptr @_ZNK5boost9unit_test14class_propertyImEcvRKmEv(ptr noundef nonnull align 8 dereferenceable(8) %55)
  %57 = load i64, ptr %56, align 8, !tbaa !14
  %58 = getelementptr inbounds nuw %"class.boost::unit_test::test_results", ptr %5, i32 0, i32 7
  %59 = getelementptr inbounds nuw %"class.boost::unit_test::class_property", ptr %58, i32 0, i32 0
  %60 = load i64, ptr %59, align 8, !tbaa !8
  %61 = add i64 %60, %57
  store i64 %61, ptr %59, align 8, !tbaa !8
  %62 = load ptr, ptr %4, align 8, !tbaa !3
  %63 = getelementptr inbounds nuw %"class.boost::unit_test::test_results", ptr %62, i32 0, i32 8
  %64 = call noundef nonnull align 8 dereferenceable(8) ptr @_ZNK5boost9unit_test14class_propertyImEcvRKmEv(ptr noundef nonnull align 8 dereferenceable(8) %63)
  %65 = load i64, ptr %64, align 8, !tbaa !14
  %66 = getelementptr inbounds nuw %"class.boost::unit_test::test_results", ptr %5, i32 0, i32 8
  %67 = getelementptr inbounds nuw %"class.boost::unit_test::class_property", ptr %66, i32 0, i32 0
  %68 = load i64, ptr %67, align 8, !tbaa !8
  %69 = add i64 %68, %65
  store i64 %69, ptr %67, align 8, !tbaa !8
  %70 = load ptr, ptr %4, align 8, !tbaa !3
  %71 = getelementptr inbounds nuw %"class.boost::unit_test::test_results", ptr %70, i32 0, i32 9
  %72 = call noundef nonnull align 8 dereferenceable(8) ptr @_ZNK5boost9unit_test14class_propertyImEcvRKmEv(ptr noundef nonnull align 8 dereferenceable(8) %71)
  %73 = load i64, ptr %72, align 8, !tbaa !14
  %74 = getelementptr inbounds nuw %"class.boost::unit_test::test_results", ptr %5, i32 0, i32 9
  %75 = getelementptr inbounds nuw %"class.boost::unit_test::class_property", ptr %74, i32 0, i32 0
  %76 = load i64, ptr %75, align 8, !tbaa !8
  %77 = add i64 %76, %73
  store i64 %77, ptr %75, align 8, !tbaa !8
  %78 = load ptr, ptr %4, align 8, !tbaa !3
  %79 = getelementptr inbounds nuw %"class.boost::unit_test::test_results", ptr %78, i32 0, i32 10
  %80 = call noundef nonnull align 8 dereferenceable(8) ptr @_ZNK5boost9unit_test14class_propertyImEcvRKmEv(ptr noundef nonnull align 8 dereferenceable(8) %79)
  %81 = load i64, ptr %80, align 8, !tbaa !14
  %82 = getelementptr inbounds nuw %"class.boost::unit_test::test_results", ptr %5, i32 0, i32 10
  %83 = getelementptr inbounds nuw %"class.boost::unit_test::class_property", ptr %82, i32 0, i32 0
  %84 = load i64, ptr %83, align 8, !tbaa !8
  %85 = add i64 %84, %81
  store i64 %85, ptr %83, align 8, !tbaa !8
  %86 = load ptr, ptr %4, align 8, !tbaa !3
  %87 = getelementptr inbounds nuw %"class.boost::unit_test::test_results", ptr %86, i32 0, i32 11
  %88 = call noundef nonnull align 8 dereferenceable(8) ptr @_ZNK5boost9unit_test14class_propertyImEcvRKmEv(ptr noundef nonnull align 8 dereferenceable(8) %87)
  %89 = load i64, ptr %88, align 8, !tbaa !14
  %90 = getelementptr inbounds nuw %"class.boost::unit_test::test_results", ptr %5, i32 0, i32 11
  %91 = getelementptr inbounds nuw %"class.boost::unit_test::class_property", ptr %90, i32 0, i32 0
  %92 = load i64, ptr %91, align 8, !tbaa !8
  %93 = add i64 %92, %89
  store i64 %93, ptr %91, align 8, !tbaa !8
  %94 = load ptr, ptr %4, align 8, !tbaa !3
  %95 = getelementptr inbounds nuw %"class.boost::unit_test::test_results", ptr %94, i32 0, i32 12
  %96 = call noundef nonnull align 8 dereferenceable(8) ptr @_ZNK5boost9unit_test14class_propertyImEcvRKmEv(ptr noundef nonnull align 8 dereferenceable(8) %95)
  %97 = load i64, ptr %96, align 8, !tbaa !14
  %98 = getelementptr inbounds nuw %"class.boost::unit_test::test_results", ptr %5, i32 0, i32 12
  %99 = getelementptr inbounds nuw %"class.boost::unit_test::class_property", ptr %98, i32 0, i32 0
  %100 = load i64, ptr %99, align 8, !tbaa !8
  %101 = add i64 %100, %97
  store i64 %101, ptr %99, align 8, !tbaa !8
  ret void
}