; Function Attrs: mustprogress nofree norecurse nosync nounwind willreturn memory(argmem: readwrite) uwtable
define void @_ZN5boost9unit_test12test_resultspLERKS1_(ptr nocapture noundef nonnull align 8 dereferenceable(107) %0, ptr nocapture noundef nonnull readonly align 8 dereferenceable(107) %1) local_unnamed_addr #6 align 2 {
  %3 = load i64, ptr %1, align 8, !tbaa !11
  %4 = load i64, ptr %0, align 8, !tbaa !14
  %5 = add i64 %4, %3
  store i64 %5, ptr %0, align 8, !tbaa !14
  %6 = getelementptr inbounds nuw i8, ptr %1, i64 8
  %7 = load i64, ptr %6, align 8, !tbaa !11
  %8 = getelementptr inbounds nuw i8, ptr %0, i64 8
  %9 = load i64, ptr %8, align 8, !tbaa !14
  %10 = add i64 %9, %7
  store i64 %10, ptr %8, align 8, !tbaa !14
  %11 = getelementptr inbounds nuw i8, ptr %1, i64 16
  %12 = load i64, ptr %11, align 8, !tbaa !11
  %13 = getelementptr inbounds nuw i8, ptr %0, i64 16
  %14 = load i64, ptr %13, align 8, !tbaa !14
  %15 = add i64 %14, %12
  store i64 %15, ptr %13, align 8, !tbaa !14
  %16 = getelementptr inbounds nuw i8, ptr %1, i64 24
  %17 = load i64, ptr %16, align 8, !tbaa !11
  %18 = getelementptr inbounds nuw i8, ptr %0, i64 24
  %19 = load i64, ptr %18, align 8, !tbaa !14
  %20 = add i64 %19, %17
  store i64 %20, ptr %18, align 8, !tbaa !14
  %21 = getelementptr inbounds nuw i8, ptr %1, i64 40
  %22 = load i64, ptr %21, align 8, !tbaa !11
  %23 = getelementptr inbounds nuw i8, ptr %0, i64 40
  %24 = load i64, ptr %23, align 8, !tbaa !14
  %25 = add i64 %24, %22
  store i64 %25, ptr %23, align 8, !tbaa !14
  %26 = getelementptr inbounds nuw i8, ptr %1, i64 48
  %27 = load i64, ptr %26, align 8, !tbaa !11
  %28 = getelementptr inbounds nuw i8, ptr %0, i64 48
  %29 = load i64, ptr %28, align 8, !tbaa !14
  %30 = add i64 %29, %27
  store i64 %30, ptr %28, align 8, !tbaa !14
  %31 = getelementptr inbounds nuw i8, ptr %1, i64 56
  %32 = load i64, ptr %31, align 8, !tbaa !11
  %33 = getelementptr inbounds nuw i8, ptr %0, i64 56
  %34 = load i64, ptr %33, align 8, !tbaa !14
  %35 = add i64 %34, %32
  store i64 %35, ptr %33, align 8, !tbaa !14
  %36 = getelementptr inbounds nuw i8, ptr %1, i64 64
  %37 = load i64, ptr %36, align 8, !tbaa !11
  %38 = getelementptr inbounds nuw i8, ptr %0, i64 64
  %39 = load i64, ptr %38, align 8, !tbaa !14
  %40 = add i64 %39, %37
  store i64 %40, ptr %38, align 8, !tbaa !14
  %41 = getelementptr inbounds nuw i8, ptr %1, i64 72
  %42 = load i64, ptr %41, align 8, !tbaa !11
  %43 = getelementptr inbounds nuw i8, ptr %0, i64 72
  %44 = load i64, ptr %43, align 8, !tbaa !14
  %45 = add i64 %44, %42
  store i64 %45, ptr %43, align 8, !tbaa !14
  %46 = getelementptr inbounds nuw i8, ptr %1, i64 80
  %47 = load i64, ptr %46, align 8, !tbaa !11
  %48 = getelementptr inbounds nuw i8, ptr %0, i64 80
  %49 = load i64, ptr %48, align 8, !tbaa !14
  %50 = add i64 %49, %47
  store i64 %50, ptr %48, align 8, !tbaa !14
  %51 = getelementptr inbounds nuw i8, ptr %1, i64 88
  %52 = load i64, ptr %51, align 8, !tbaa !11
  %53 = getelementptr inbounds nuw i8, ptr %0, i64 88
  %54 = load i64, ptr %53, align 8, !tbaa !14
  %55 = add i64 %54, %52
  store i64 %55, ptr %53, align 8, !tbaa !14
  %56 = getelementptr inbounds nuw i8, ptr %1, i64 96
  %57 = load i64, ptr %56, align 8, !tbaa !11
  %58 = getelementptr inbounds nuw i8, ptr %0, i64 96
  %59 = load i64, ptr %58, align 8, !tbaa !14
  %60 = add i64 %59, %57
  store i64 %60, ptr %58, align 8, !tbaa !14
  ret void
}